; Function Attrs: mustprogress nounwind uwtable
define dso_local range(i64 0, 8589934592) i64 @_ZN5clang5NSAPI25getNSDictionaryMethodKindENS_8SelectorE(ptr nocapture noundef nonnull align 8 dereferenceable(712) %0, i64 %1) local_unnamed_addr #2 align 2 {
  %3 = inttoptr i64 %1 to ptr
  br label %4

4:                                                ; preds = %2, %8
  %.04 = phi i32 [ 0, %2 ], [ %9, %8 ]
  %5 = tail call i64 @_ZNK5clang5NSAPI23getNSDictionarySelectorENS0_22NSDictionaryMethodKindE(ptr noundef nonnull align 8 dereferenceable(712) %0, i32 noundef %.04)
  %6 = inttoptr i64 %5 to ptr
  %7 = icmp eq ptr %3, %6
  br i1 %7, label %10, label %8

8:                                                ; preds = %4
  %9 = add nuw nsw i32 %.04, 1
  %.not = icmp eq i32 %9, 13
  br i1 %.not, label %10, label %4, !llvm.loop !6

10:                                               ; preds = %8, %4
  %.0.lcssa = phi i32 [ 13, %8 ], [ %.04, %4 ]
  %.sroa.2.0 = phi i64 [ 0, %8 ], [ 4294967296, %4 ]
  %.sroa.03.0.insert.ext = zext nneg i32 %.0.lcssa to i64
  %.sroa.03.0.insert.insert = or disjoint i64 %.sroa.2.0, %.sroa.03.0.insert.ext
  ret i64 %.sroa.03.0.insert.insert
}